target datalayout = "e-m:e-p270:32:32-p271:32:32-p272:64:64-i64:64-i128:128-f80:128-n8:16:32:64-S128"
target triple = "x86_64-pc-linux-gnu"

@hf_lwm_cmd_route_src = internal global i32 0, align 4
@hf_lwm_cmd_route_dst = internal global i32 0, align 4
@hf_lwm_cmd_route_multi = internal global i32 0, align 4
@.str.109 = private unnamed_addr constant [4 x i8] c" %s\00", align 1
@.str.110 = private unnamed_addr constant [11 x i8] c"(Group ID)\00", align 1
@.str.111 = private unnamed_addr constant [10 x i8] c"(Unicast)\00", align 1

; Function Attrs: null_pointer_is_valid sspstrong uwtable
define internal i32 @dissect_lwm_cmd_frame_route_err(ptr noundef %0, ptr noundef %1, ptr noundef %2) #0 {
  %4 = alloca ptr, align 8
  %5 = alloca ptr, align 8
  %6 = alloca ptr, align 8
  %7 = alloca ptr, align 8
  store ptr %0, ptr %4, align 8
  store ptr %1, ptr %5, align 8
  store ptr %2, ptr %6, align 8
  %8 = load ptr, ptr %6, align 8
  %9 = icmp ne ptr %8, null
  br i1 %9, label %10, label %32

10:                                               ; preds = %3
  call void @llvm.lifetime.start.p0(i64 8, ptr %7) #6
  %11 = load ptr, ptr %6, align 8
  %12 = load i32, ptr @hf_lwm_cmd_route_src, align 4
  %13 = load ptr, ptr %4, align 8
  %14 = call ptr @proto_tree_add_item(ptr noundef %11, i32 noundef %12, ptr noundef %13, i32 noundef 1, i32 noundef 2, i32 noundef -2147483648)
  %15 = load ptr, ptr %6, align 8
  %16 = load i32, ptr @hf_lwm_cmd_route_dst, align 4
  %17 = load ptr, ptr %4, align 8
  %18 = call ptr @proto_tree_add_item(ptr noundef %15, i32 noundef %16, ptr noundef %17, i32 noundef 3, i32 noundef 2, i32 noundef -2147483648)
  store ptr %18, ptr %7, align 8
  %19 = load ptr, ptr %4, align 8
  %20 = call zeroext i8 @tvb_get_uint8(ptr noundef %19, i32 noundef 5)
  %21 = zext i8 %20 to i32
  %22 = icmp eq i32 %21, 1
  br i1 %22, label %23, label %25

23:                                               ; preds = %10
  %24 = load ptr, ptr %7, align 8
  call void (ptr, ptr, ...) @proto_item_append_text(ptr noundef %24, ptr noundef @.str.109, ptr noundef @.str.110)
  br label %27

25:                                               ; preds = %10
  %26 = load ptr, ptr %7, align 8
  call void (ptr, ptr, ...) @proto_item_append_text(ptr noundef %26, ptr noundef @.str.109, ptr noundef @.str.111)
  br label %27

27:                                               ; preds = %25, %23
  %28 = load ptr, ptr %6, align 8
  %29 = load i32, ptr @hf_lwm_cmd_route_multi, align 4
  %30 = load ptr, ptr %4, align 8
  %31 = call ptr @proto_tree_add_item(ptr noundef %28, i32 noundef %29, ptr noundef %30, i32 noundef 5, i32 noundef 1, i32 noundef 0)
  call void @llvm.lifetime.end.p0(i64 8, ptr %7) #6
  br label %32

32:                                               ; preds = %27, %3
  ret i32 6
}