; Function Attrs: null_pointer_is_valid sspstrong uwtable
define internal fastcc void @dissect_lwm_cmd_frame_route_err(ptr noundef %0, ptr noundef %1) unnamed_addr #0 {
  %.not = icmp eq ptr %1, null
  br i1 %.not, label %12, label %3

3:                                                ; preds = %2
  %4 = load i32, ptr @hf_lwm_cmd_route_src, align 4
  %5 = tail call ptr @proto_tree_add_item(ptr noundef nonnull %1, i32 noundef %4, ptr noundef %0, i32 noundef 1, i32 noundef 2, i32 noundef -2147483648)
  %6 = load i32, ptr @hf_lwm_cmd_route_dst, align 4
  %7 = tail call ptr @proto_tree_add_item(ptr noundef nonnull %1, i32 noundef %6, ptr noundef %0, i32 noundef 3, i32 noundef 2, i32 noundef -2147483648)
  %8 = tail call zeroext i8 @tvb_get_uint8(ptr noundef %0, i32 noundef 5)
  %9 = icmp eq i8 %8, 1
  %.str.110..str.111 = select i1 %9, ptr @.str.110, ptr @.str.111
  tail call void (ptr, ptr, ...) @proto_item_append_text(ptr noundef %7, ptr noundef nonnull @.str.109, ptr noundef nonnull %.str.110..str.111)
  %10 = load i32, ptr @hf_lwm_cmd_route_multi, align 4
  %11 = tail call ptr @proto_tree_add_item(ptr noundef nonnull %1, i32 noundef %10, ptr noundef %0, i32 noundef 5, i32 noundef 1, i32 noundef 0)
  br label %12

12:                                               ; preds = %3, %2
  ret void
}